target datalayout = "e-m:e-p270:32:32-p271:32:32-p272:64:64-i64:64-i128:128-f80:128-n8:16:32:64-S128"
target triple = "x86_64-pc-linux-gnu"

%struct.notes_rewrite_cfg = type { ptr, ptr, i32, ptr, ptr, i32, i32 }
%struct.string_list = type { ptr, i64, i64, i8, ptr }

@the_repository = external global ptr, align 8
@.str.9 = private unnamed_addr constant [14 x i8] c"cat_sort_uniq\00", align 1
@.str.10 = private unnamed_addr constant [23 x i8] c"GIT_NOTES_REWRITE_MODE\00", align 1
@.str.11 = private unnamed_addr constant [22 x i8] c"GIT_NOTES_REWRITE_REF\00", align 1
@.str.12 = private unnamed_addr constant [19 x i8] c"Bad %s value: '%s'\00", align 1
@.str.13 = private unnamed_addr constant [1 x i8] zeroinitializer, align 1
@git_gettext_enabled = external global i32, align 4
@.str.14 = private unnamed_addr constant [10 x i8] c"overwrite\00", align 1
@.str.15 = private unnamed_addr constant [7 x i8] c"ignore\00", align 1
@.str.16 = private unnamed_addr constant [12 x i8] c"concatenate\00", align 1

; Function Attrs: inlinehint nounwind uwtable
define internal void @git_config(ptr noundef %0, ptr noundef %1) #4 {
  %3 = alloca ptr, align 8
  %4 = alloca ptr, align 8
  store ptr %0, ptr %3, align 8, !tbaa !36
  store ptr %1, ptr %4, align 8, !tbaa !36
  %5 = load ptr, ptr @the_repository, align 8, !tbaa !4
  %6 = load ptr, ptr %3, align 8, !tbaa !36
  %7 = load ptr, ptr %4, align 8, !tbaa !36
  call void @repo_config(ptr noundef %5, ptr noundef %6, ptr noundef %7)
  ret void
}

; Function Attrs: inlinehint nounwind uwtable
define internal i32 @const_error() #4 {
  ret i32 -1
}

; Function Attrs: inlinehint nounwind uwtable
define internal ptr @_(ptr noundef %0) #4 {
  %2 = alloca ptr, align 8
  %3 = alloca ptr, align 8
  store ptr %0, ptr %3, align 8, !tbaa !13
  %4 = load ptr, ptr %3, align 8, !tbaa !13
  %5 = load i8, ptr %4, align 1, !tbaa !28
  %6 = icmp ne i8 %5, 0
  br i1 %6, label %8, label %7

7:                                                ; preds = %1
  store ptr @.str.13, ptr %2, align 8
  br label %16

8:                                                ; preds = %1
  %9 = load i32, ptr @git_gettext_enabled, align 4, !tbaa !33
  %10 = icmp ne i32 %9, 0
  br i1 %10, label %13, label %11

11:                                               ; preds = %8
  %12 = load ptr, ptr %3, align 8, !tbaa !13
  store ptr %12, ptr %2, align 8
  br label %16

13:                                               ; preds = %8
  %14 = load ptr, ptr %3, align 8, !tbaa !13
  %15 = call ptr @dcgettext(ptr noundef null, ptr noundef %14, i32 noundef 5) #8
  store ptr %15, ptr %2, align 8
  br label %16

16:                                               ; preds = %13, %11, %7
  %17 = load ptr, ptr %2, align 8
  ret ptr %17
}

; Function Attrs: nounwind uwtable
define internal ptr @parse_combine_notes_fn(ptr noundef %0) #0 {
  %2 = alloca ptr, align 8
  %3 = alloca ptr, align 8
  store ptr %0, ptr %3, align 8, !tbaa !13
  %4 = load ptr, ptr %3, align 8, !tbaa !13
  %5 = call i32 @strcasecmp(ptr noundef %4, ptr noundef @.str.14) #10
  %6 = icmp ne i32 %5, 0
  br i1 %6, label %8, label %7

7:                                                ; preds = %1
  store ptr @combine_notes_overwrite, ptr %2, align 8
  br label %24

8:                                                ; preds = %1
  %9 = load ptr, ptr %3, align 8, !tbaa !13
  %10 = call i32 @strcasecmp(ptr noundef %9, ptr noundef @.str.15) #10
  %11 = icmp ne i32 %10, 0
  br i1 %11, label %13, label %12

12:                                               ; preds = %8
  store ptr @combine_notes_ignore, ptr %2, align 8
  br label %24

13:                                               ; preds = %8
  %14 = load ptr, ptr %3, align 8, !tbaa !13
  %15 = call i32 @strcasecmp(ptr noundef %14, ptr noundef @.str.16) #10
  %16 = icmp ne i32 %15, 0
  br i1 %16, label %18, label %17

17:                                               ; preds = %13
  store ptr @combine_notes_concatenate, ptr %2, align 8
  br label %24

18:                                               ; preds = %13
  %19 = load ptr, ptr %3, align 8, !tbaa !13
  %20 = call i32 @strcasecmp(ptr noundef %19, ptr noundef @.str.9) #10
  %21 = icmp ne i32 %20, 0
  br i1 %21, label %23, label %22

22:                                               ; preds = %18
  store ptr @combine_notes_cat_sort_uniq, ptr %2, align 8
  br label %24

23:                                               ; preds = %18
  store ptr null, ptr %2, align 8
  br label %24

24:                                               ; preds = %23, %22, %17, %12, %7
  %25 = load ptr, ptr %2, align 8
  ret ptr %25
}

; Function Attrs: nounwind uwtable
define dso_local ptr @init_copy_notes_for_rewrite(ptr noundef %0) #0 {
  %2 = alloca ptr, align 8
  %3 = alloca ptr, align 8
  %4 = alloca ptr, align 8
  %5 = alloca ptr, align 8
  %6 = alloca ptr, align 8
  %7 = alloca i32, align 4
  store ptr %0, ptr %3, align 8, !tbaa !13
  call void @llvm.lifetime.start.p0(i64 8, ptr %4) #8
  %8 = call ptr @xmalloc(i64 noundef 48)
  store ptr %8, ptr %4, align 8, !tbaa !37
  call void @llvm.lifetime.start.p0(i64 8, ptr %5) #8
  %9 = call ptr @getenv(ptr noundef @.str.10) #8
  store ptr %9, ptr %5, align 8, !tbaa !13
  call void @llvm.lifetime.start.p0(i64 8, ptr %6) #8
  %10 = call ptr @getenv(ptr noundef @.str.11) #8
  store ptr %10, ptr %6, align 8, !tbaa !13
  %11 = load ptr, ptr %3, align 8, !tbaa !13
  %12 = load ptr, ptr %4, align 8, !tbaa !37
  %13 = getelementptr inbounds nuw %struct.notes_rewrite_cfg, ptr %12, i32 0, i32 1
  store ptr %11, ptr %13, align 8, !tbaa !39
  %14 = load ptr, ptr %4, align 8, !tbaa !37
  %15 = getelementptr inbounds nuw %struct.notes_rewrite_cfg, ptr %14, i32 0, i32 2
  store i32 1, ptr %15, align 8, !tbaa !43
  %16 = load ptr, ptr %4, align 8, !tbaa !37
  %17 = getelementptr inbounds nuw %struct.notes_rewrite_cfg, ptr %16, i32 0, i32 3
  store ptr @combine_notes_concatenate, ptr %17, align 8, !tbaa !44
  %18 = call ptr @xcalloc(i64 noundef 1, i64 noundef 40)
  %19 = load ptr, ptr %4, align 8, !tbaa !37
  %20 = getelementptr inbounds nuw %struct.notes_rewrite_cfg, ptr %19, i32 0, i32 4
  store ptr %18, ptr %20, align 8, !tbaa !45
  %21 = load ptr, ptr %4, align 8, !tbaa !37
  %22 = getelementptr inbounds nuw %struct.notes_rewrite_cfg, ptr %21, i32 0, i32 4
  %23 = load ptr, ptr %22, align 8, !tbaa !45
  %24 = getelementptr inbounds nuw %struct.string_list, ptr %23, i32 0, i32 3
  %25 = load i8, ptr %24, align 8
  %26 = and i8 %25, -2
  %27 = or i8 %26, 1
  store i8 %27, ptr %24, align 8
  %28 = load ptr, ptr %4, align 8, !tbaa !37
  %29 = getelementptr inbounds nuw %struct.notes_rewrite_cfg, ptr %28, i32 0, i32 5
  store i32 0, ptr %29, align 8, !tbaa !46
  %30 = load ptr, ptr %4, align 8, !tbaa !37
  %31 = getelementptr inbounds nuw %struct.notes_rewrite_cfg, ptr %30, i32 0, i32 6
  store i32 0, ptr %31, align 4, !tbaa !47
  %32 = load ptr, ptr %5, align 8, !tbaa !13
  %33 = icmp ne ptr %32, null
  br i1 %33, label %34, label %51

34:                                               ; preds = %1
  %35 = load ptr, ptr %4, align 8, !tbaa !37
  %36 = getelementptr inbounds nuw %struct.notes_rewrite_cfg, ptr %35, i32 0, i32 6
  store i32 1, ptr %36, align 4, !tbaa !47
  %37 = load ptr, ptr %5, align 8, !tbaa !13
  %38 = call ptr @parse_combine_notes_fn(ptr noundef %37)
  %39 = load ptr, ptr %4, align 8, !tbaa !37
  %40 = getelementptr inbounds nuw %struct.notes_rewrite_cfg, ptr %39, i32 0, i32 3
  store ptr %38, ptr %40, align 8, !tbaa !44
  %41 = load ptr, ptr %4, align 8, !tbaa !37
  %42 = getelementptr inbounds nuw %struct.notes_rewrite_cfg, ptr %41, i32 0, i32 3
  %43 = load ptr, ptr %42, align 8, !tbaa !44
  %44 = icmp ne ptr %43, null
  br i1 %44, label %50, label %45

45:                                               ; preds = %34
  %46 = call ptr @_(ptr noundef @.str.12)
  %47 = load ptr, ptr %5, align 8, !tbaa !13
  %48 = call i32 (ptr, ...) @error(ptr noundef %46, ptr noundef @.str.10, ptr noundef %47)
  %49 = call i32 @const_error()
  br label %50

50:                                               ; preds = %45, %34
  br label %51

51:                                               ; preds = %50, %1
  %52 = load ptr, ptr %6, align 8, !tbaa !13
  %53 = icmp ne ptr %52, null
  br i1 %53, label %54, label %61

54:                                               ; preds = %51
  %55 = load ptr, ptr %4, align 8, !tbaa !37
  %56 = getelementptr inbounds nuw %struct.notes_rewrite_cfg, ptr %55, i32 0, i32 5
  store i32 1, ptr %56, align 8, !tbaa !46
  %57 = load ptr, ptr %4, align 8, !tbaa !37
  %58 = getelementptr inbounds nuw %struct.notes_rewrite_cfg, ptr %57, i32 0, i32 4
  %59 = load ptr, ptr %58, align 8, !tbaa !45
  %60 = load ptr, ptr %6, align 8, !tbaa !13
  call void @string_list_add_refs_from_colon_sep(ptr noundef %59, ptr noundef %60)
  br label %61

61:                                               ; preds = %54, %51
  %62 = load ptr, ptr %4, align 8, !tbaa !37
  call void @git_config(ptr noundef @notes_rewrite_config, ptr noundef %62)
  %63 = load ptr, ptr %4, align 8, !tbaa !37
  %64 = getelementptr inbounds nuw %struct.notes_rewrite_cfg, ptr %63, i32 0, i32 2
  %65 = load i32, ptr %64, align 8, !tbaa !43
  %66 = icmp ne i32 %65, 0
  br i1 %66, label %67, label %74

67:                                               ; preds = %61
  %68 = load ptr, ptr %4, align 8, !tbaa !37
  %69 = getelementptr inbounds nuw %struct.notes_rewrite_cfg, ptr %68, i32 0, i32 4
  %70 = load ptr, ptr %69, align 8, !tbaa !45
  %71 = getelementptr inbounds nuw %struct.string_list, ptr %70, i32 0, i32 1
  %72 = load i64, ptr %71, align 8, !tbaa !48
  %73 = icmp ne i64 %72, 0
  br i1 %73, label %82, label %74

74:                                               ; preds = %67, %61
  %75 = load ptr, ptr %4, align 8, !tbaa !37
  %76 = getelementptr inbounds nuw %struct.notes_rewrite_cfg, ptr %75, i32 0, i32 4
  %77 = load ptr, ptr %76, align 8, !tbaa !45
  call void @string_list_clear(ptr noundef %77, i32 noundef 0)
  %78 = load ptr, ptr %4, align 8, !tbaa !37
  %79 = getelementptr inbounds nuw %struct.notes_rewrite_cfg, ptr %78, i32 0, i32 4
  %80 = load ptr, ptr %79, align 8, !tbaa !45
  call void @free(ptr noundef %80) #8
  %81 = load ptr, ptr %4, align 8, !tbaa !37
  call void @free(ptr noundef %81) #8
  store ptr null, ptr %2, align 8
  store i32 1, ptr %7, align 4
  br label %96

82:                                               ; preds = %67
  %83 = load ptr, ptr %4, align 8, !tbaa !37
  %84 = getelementptr inbounds nuw %struct.notes_rewrite_cfg, ptr %83, i32 0, i32 4
  %85 = load ptr, ptr %84, align 8, !tbaa !45
  %86 = call ptr @load_notes_trees(ptr noundef %85, i32 noundef 2)
  %87 = load ptr, ptr %4, align 8, !tbaa !37
  %88 = getelementptr inbounds nuw %struct.notes_rewrite_cfg, ptr %87, i32 0, i32 0
  store ptr %86, ptr %88, align 8, !tbaa !51
  %89 = load ptr, ptr %4, align 8, !tbaa !37
  %90 = getelementptr inbounds nuw %struct.notes_rewrite_cfg, ptr %89, i32 0, i32 4
  %91 = load ptr, ptr %90, align 8, !tbaa !45
  call void @string_list_clear(ptr noundef %91, i32 noundef 0)
  %92 = load ptr, ptr %4, align 8, !tbaa !37
  %93 = getelementptr inbounds nuw %struct.notes_rewrite_cfg, ptr %92, i32 0, i32 4
  %94 = load ptr, ptr %93, align 8, !tbaa !45
  call void @free(ptr noundef %94) #8
  %95 = load ptr, ptr %4, align 8, !tbaa !37
  store ptr %95, ptr %2, align 8
  store i32 1, ptr %7, align 4
  br label %96

96:                                               ; preds = %82, %74
  call void @llvm.lifetime.end.p0(i64 8, ptr %6) #8
  call void @llvm.lifetime.end.p0(i64 8, ptr %5) #8
  call void @llvm.lifetime.end.p0(i64 8, ptr %4) #8
  %97 = load ptr, ptr %2, align 8
  ret ptr %97
}