; Function Attrs: nounwind uwtable
define dso_local ptr @init_copy_notes_for_rewrite(ptr noundef %0) local_unnamed_addr #0 {
  %2 = tail call ptr @xmalloc(i64 noundef 48) #12
  %3 = tail call ptr @getenv(ptr noundef nonnull @.str.10) #12
  %4 = tail call ptr @getenv(ptr noundef nonnull @.str.11) #12
  %5 = getelementptr inbounds nuw i8, ptr %2, i64 8
  store ptr %0, ptr %5, align 8, !tbaa !27
  %6 = getelementptr inbounds nuw i8, ptr %2, i64 16
  store i32 1, ptr %6, align 8, !tbaa !31
  %7 = getelementptr inbounds nuw i8, ptr %2, i64 24
  store ptr @combine_notes_concatenate, ptr %7, align 8, !tbaa !32
  %8 = tail call ptr @xcalloc(i64 noundef 1, i64 noundef 40) #12
  %9 = getelementptr inbounds nuw i8, ptr %2, i64 32
  store ptr %8, ptr %9, align 8, !tbaa !33
  %10 = getelementptr inbounds nuw i8, ptr %8, i64 24
  %11 = load i8, ptr %10, align 8
  %12 = or i8 %11, 1
  store i8 %12, ptr %10, align 8
  %13 = getelementptr inbounds nuw i8, ptr %2, i64 40
  store i32 0, ptr %13, align 8, !tbaa !34
  %14 = getelementptr inbounds nuw i8, ptr %2, i64 44
  store i32 0, ptr %14, align 4, !tbaa !35
  %.not = icmp eq ptr %3, null
  br i1 %.not, label %28, label %15

15:                                               ; preds = %1
  store i32 1, ptr %14, align 4, !tbaa !35
  %16 = tail call i32 @strcasecmp(ptr noundef nonnull readonly %3, ptr noundef nonnull @.str.14) #14
  %.not.i = icmp eq i32 %16, 0
  br i1 %.not.i, label %parse_combine_notes_fn.exit.thread, label %17

17:                                               ; preds = %15
  %18 = tail call i32 @strcasecmp(ptr noundef nonnull readonly %3, ptr noundef nonnull @.str.15) #14
  %.not5.i = icmp eq i32 %18, 0
  br i1 %.not5.i, label %parse_combine_notes_fn.exit.thread, label %19

19:                                               ; preds = %17
  %20 = tail call i32 @strcasecmp(ptr noundef nonnull readonly %3, ptr noundef nonnull @.str.16) #14
  %.not6.i = icmp eq i32 %20, 0
  br i1 %.not6.i, label %parse_combine_notes_fn.exit.thread, label %21

21:                                               ; preds = %19
  %22 = tail call i32 @strcasecmp(ptr noundef nonnull readonly %3, ptr noundef nonnull @.str.9) #14
  %.not7.i = icmp eq i32 %22, 0
  br i1 %.not7.i, label %parse_combine_notes_fn.exit.thread, label %23

parse_combine_notes_fn.exit.thread:               ; preds = %15, %17, %19, %21
  %.0.i.ph = phi ptr [ @combine_notes_concatenate, %19 ], [ @combine_notes_ignore, %17 ], [ @combine_notes_overwrite, %15 ], [ @combine_notes_cat_sort_uniq, %21 ]
  store ptr %.0.i.ph, ptr %7, align 8, !tbaa !32
  br label %28

23:                                               ; preds = %21
  store ptr null, ptr %7, align 8, !tbaa !32
  %24 = load i32, ptr @git_gettext_enabled, align 4, !tbaa !26
  %.not4.i = icmp eq i32 %24, 0
  br i1 %.not4.i, label %_.exit, label %25

25:                                               ; preds = %23
  %26 = tail call ptr @dcgettext(ptr noundef null, ptr noundef nonnull @.str.12, i32 noundef 5) #12
  br label %_.exit

_.exit:                                           ; preds = %23, %25
  %.0.i36 = phi ptr [ %26, %25 ], [ @.str.12, %23 ]
  %27 = tail call i32 (ptr, ...) @error(ptr noundef %.0.i36, ptr noundef nonnull @.str.10, ptr noundef nonnull %3) #12
  br label %28

28:                                               ; preds = %parse_combine_notes_fn.exit.thread, %_.exit, %1
  %.not33 = icmp eq ptr %4, null
  br i1 %.not33, label %31, label %29

29:                                               ; preds = %28
  store i32 1, ptr %13, align 8, !tbaa !34
  %30 = load ptr, ptr %9, align 8, !tbaa !33
  tail call void @string_list_add_refs_from_colon_sep(ptr noundef %30, ptr noundef nonnull %4) #12
  br label %31

31:                                               ; preds = %29, %28
  %32 = load ptr, ptr @the_repository, align 8, !tbaa !9
  tail call void @repo_config(ptr noundef %32, ptr noundef nonnull @notes_rewrite_config, ptr noundef nonnull %2) #12
  %33 = load i32, ptr %6, align 8, !tbaa !31
  %.not34 = icmp eq i32 %33, 0
  %.pre = load ptr, ptr %9, align 8, !tbaa !33
  br i1 %.not34, label %37, label %34

34:                                               ; preds = %31
  %35 = getelementptr inbounds nuw i8, ptr %.pre, i64 8
  %36 = load i64, ptr %35, align 8, !tbaa !36
  %.not35 = icmp eq i64 %36, 0
  br i1 %.not35, label %37, label %39

37:                                               ; preds = %34, %31
  tail call void @string_list_clear(ptr noundef %.pre, i32 noundef 0) #12
  %38 = load ptr, ptr %9, align 8, !tbaa !33
  tail call void @free(ptr noundef %38) #12
  br label %43

39:                                               ; preds = %34
  %40 = tail call ptr @load_notes_trees(ptr noundef nonnull %.pre, i32 noundef 2) #12
  store ptr %40, ptr %2, align 8, !tbaa !39
  %41 = load ptr, ptr %9, align 8, !tbaa !33
  tail call void @string_list_clear(ptr noundef %41, i32 noundef 0) #12
  %42 = load ptr, ptr %9, align 8, !tbaa !33
  br label %43

43:                                               ; preds = %39, %37
  %.sink = phi ptr [ %42, %39 ], [ %2, %37 ]
  %.0 = phi ptr [ %2, %39 ], [ null, %37 ]
  tail call void @free(ptr noundef %.sink) #12
  ret ptr %.0
}